target datalayout = "e-m:e-p270:32:32-p271:32:32-p272:64:64-i64:64-i128:128-f80:128-n8:16:32:64-S128"
target triple = "x86_64-pc-linux-gnu"

%struct.ident_t = type { i32, i32, i32, i32, ptr }

@2 = private unnamed_addr constant %struct.ident_t { i32 0, i32 514, i32 0, i32 22, ptr @0 }, align 8

; Function Attrs: norecurse nounwind uwtable
define internal void @_ZN5faiss12_GLOBAL__N_117compute_centroidsEmmmmPKhPKNS_5IndexEPKlPKfPfSA_.omp_outlined.27(ptr noalias noundef %0, ptr noalias noundef %1, ptr noundef nonnull align 8 dereferenceable(8) %2, ptr noundef nonnull align 8 dereferenceable(8) %3, ptr noundef nonnull align 8 dereferenceable(8) %4, ptr noundef nonnull align 8 dereferenceable(8) %5) #11 {
  %7 = alloca ptr, align 8
  %8 = alloca ptr, align 8
  %9 = alloca ptr, align 8
  %10 = alloca ptr, align 8
  %11 = alloca ptr, align 8
  %12 = alloca ptr, align 8
  %13 = alloca i64, align 8
  %14 = alloca i64, align 8
  %15 = alloca i64, align 8
  %16 = alloca i64, align 8
  %17 = alloca i64, align 8
  %18 = alloca i64, align 8
  %19 = alloca i64, align 8
  %20 = alloca i32, align 4
  %21 = alloca i64, align 8
  %22 = alloca float, align 4
  %23 = alloca ptr, align 8
  %24 = alloca i64, align 8
  store ptr %0, ptr %7, align 8
  store ptr %1, ptr %8, align 8
  store ptr %2, ptr %9, align 8
  store ptr %3, ptr %10, align 8
  store ptr %4, ptr %11, align 8
  store ptr %5, ptr %12, align 8
  %25 = load ptr, ptr %9, align 8
  %26 = load ptr, ptr %10, align 8
  %27 = load ptr, ptr %11, align 8
  %28 = load ptr, ptr %12, align 8
  %29 = load i64, ptr %25, align 8
  store i64 %29, ptr %14, align 8
  %30 = load i64, ptr %14, align 8
  %31 = sub i64 %30, 0
  %32 = udiv i64 %31, 1
  %33 = sub i64 %32, 1
  store i64 %33, ptr %15, align 8
  store i64 0, ptr %16, align 8
  %34 = load i64, ptr %14, align 8
  %35 = icmp ult i64 0, %34
  br i1 %35, label %36, label %99

36:                                               ; preds = %6
  store i64 0, ptr %17, align 8
  %37 = load i64, ptr %15, align 8
  store i64 %37, ptr %18, align 8
  store i64 1, ptr %19, align 8
  store i32 0, ptr %20, align 4
  %38 = load ptr, ptr %7, align 8
  %39 = load i32, ptr %38, align 4
  call void @__kmpc_for_static_init_8u(ptr @2, i32 %39, i32 34, ptr %20, ptr %17, ptr %18, ptr %19, i64 1, i64 1)
  %40 = load i64, ptr %18, align 8
  %41 = load i64, ptr %15, align 8
  %42 = icmp ugt i64 %40, %41
  br i1 %42, label %43, label %45

43:                                               ; preds = %36
  %44 = load i64, ptr %15, align 8
  br label %47

45:                                               ; preds = %36
  %46 = load i64, ptr %18, align 8
  br label %47

47:                                               ; preds = %45, %43
  %48 = phi i64 [ %44, %43 ], [ %46, %45 ]
  store i64 %48, ptr %18, align 8
  %49 = load i64, ptr %17, align 8
  store i64 %49, ptr %13, align 8
  br label %50

50:                                               ; preds = %92, %47
  %51 = load i64, ptr %13, align 8
  %52 = load i64, ptr %18, align 8
  %53 = add i64 %52, 1
  %54 = icmp ult i64 %51, %53
  br i1 %54, label %55, label %95

55:                                               ; preds = %50
  %56 = load i64, ptr %13, align 8
  %57 = mul i64 %56, 1
  %58 = add i64 0, %57
  store i64 %58, ptr %21, align 8
  %59 = load ptr, ptr %26, align 8
  %60 = load i64, ptr %21, align 8
  %61 = getelementptr inbounds float, ptr %59, i64 %60
  %62 = load float, ptr %61, align 4
  %63 = fcmp oeq float %62, 0.000000e+00
  br i1 %63, label %64, label %65

64:                                               ; preds = %55
  br label %91

65:                                               ; preds = %55
  %66 = load ptr, ptr %26, align 8
  %67 = load i64, ptr %21, align 8
  %68 = getelementptr inbounds float, ptr %66, i64 %67
  %69 = load float, ptr %68, align 4
  %70 = fdiv float 1.000000e+00, %69
  store float %70, ptr %22, align 4
  %71 = load ptr, ptr %27, align 8
  %72 = load i64, ptr %21, align 8
  %73 = load i64, ptr %28, align 8
  %74 = mul i64 %72, %73
  %75 = getelementptr inbounds float, ptr %71, i64 %74
  store ptr %75, ptr %23, align 8
  store i64 0, ptr %24, align 8
  br label %76

76:                                               ; preds = %87, %65
  %77 = load i64, ptr %24, align 8
  %78 = load i64, ptr %28, align 8
  %79 = icmp ult i64 %77, %78
  br i1 %79, label %80, label %90

80:                                               ; preds = %76
  %81 = load float, ptr %22, align 4
  %82 = load ptr, ptr %23, align 8
  %83 = load i64, ptr %24, align 8
  %84 = getelementptr inbounds float, ptr %82, i64 %83
  %85 = load float, ptr %84, align 4
  %86 = fmul float %85, %81
  store float %86, ptr %84, align 4
  br label %87

87:                                               ; preds = %80
  %88 = load i64, ptr %24, align 8
  %89 = add i64 %88, 1
  store i64 %89, ptr %24, align 8
  br label %76, !llvm.loop !28

90:                                               ; preds = %76
  br label %91

91:                                               ; preds = %90, %64
  br label %92

92:                                               ; preds = %91
  %93 = load i64, ptr %13, align 8
  %94 = add i64 %93, 1
  store i64 %94, ptr %13, align 8
  br label %50

95:                                               ; preds = %50
  br label %96

96:                                               ; preds = %95
  %97 = load ptr, ptr %7, align 8
  %98 = load i32, ptr %97, align 4
  call void @__kmpc_for_static_fini(ptr @2, i32 %98)
  br label %99

99:                                               ; preds = %96, %6
  ret void
}