; Function Attrs: norecurse nounwind uwtable
define internal void @_ZN5faiss12_GLOBAL__N_117compute_centroidsEmmmmPKhPKNS_5IndexEPKlPKfPfSA_.omp_outlined.27(ptr noalias nocapture noundef readonly %0, ptr noalias nocapture readnone %1, ptr nocapture noundef nonnull readonly align 8 dereferenceable(8) %2, ptr nocapture noundef nonnull readonly align 8 dereferenceable(8) %3, ptr nocapture noundef nonnull readonly align 8 dereferenceable(8) %4, ptr nocapture noundef nonnull readonly align 8 dereferenceable(8) %5) #14 {
  %7 = alloca i64, align 8
  %8 = alloca i64, align 8
  %9 = alloca i64, align 8
  %10 = alloca i32, align 4
  %11 = load i64, ptr %2, align 8
  %.not = icmp eq i64 %11, 0
  br i1 %.not, label %39, label %12

12:                                               ; preds = %6
  %13 = add i64 %11, -1
  store i64 0, ptr %7, align 8
  store i64 %13, ptr %8, align 8
  store i64 1, ptr %9, align 8
  store i32 0, ptr %10, align 4
  %14 = load i32, ptr %0, align 4
  call void @__kmpc_for_static_init_8u(ptr nonnull @2, i32 %14, i32 34, ptr nonnull %10, ptr nonnull %7, ptr nonnull %8, ptr nonnull %9, i64 1, i64 1)
  %15 = load i64, ptr %8, align 8
  %16 = call i64 @llvm.umin.i64(i64 %15, i64 %13)
  store i64 %16, ptr %8, align 8
  %17 = load i64, ptr %7, align 8
  %.not27 = icmp ugt i64 %17, %16
  br i1 %.not27, label %._crit_edge, label %.lr.ph25

.lr.ph25:                                         ; preds = %12, %.loopexit
  %18 = phi i64 [ %35, %.loopexit ], [ %16, %12 ]
  %.02124 = phi i64 [ %36, %.loopexit ], [ %17, %12 ]
  %19 = load ptr, ptr %3, align 8
  %20 = getelementptr inbounds float, ptr %19, i64 %.02124
  %21 = load float, ptr %20, align 4
  %22 = fcmp oeq float %21, 0.000000e+00
  br i1 %22, label %.loopexit, label %23

23:                                               ; preds = %.lr.ph25
  %24 = fdiv float 1.000000e+00, %21
  %25 = load ptr, ptr %4, align 8
  %26 = load i64, ptr %5, align 8
  %27 = mul i64 %26, %.02124
  %28 = getelementptr inbounds float, ptr %25, i64 %27
  %.not26 = icmp eq i64 %26, 0
  br i1 %.not26, label %.loopexit, label %.lr.ph

.lr.ph:                                           ; preds = %23, %.lr.ph
  %.023 = phi i64 [ %32, %.lr.ph ], [ 0, %23 ]
  %29 = getelementptr inbounds float, ptr %28, i64 %.023
  %30 = load float, ptr %29, align 4
  %31 = fmul float %24, %30
  store float %31, ptr %29, align 4
  %32 = add nuw i64 %.023, 1
  %33 = load i64, ptr %5, align 8
  %34 = icmp ult i64 %32, %33
  br i1 %34, label %.lr.ph, label %.loopexit.loopexit, !llvm.loop !26

.loopexit.loopexit:                               ; preds = %.lr.ph
  %.pre = load i64, ptr %8, align 8
  br label %.loopexit

.loopexit:                                        ; preds = %.loopexit.loopexit, %23, %.lr.ph25
  %35 = phi i64 [ %.pre, %.loopexit.loopexit ], [ %18, %23 ], [ %18, %.lr.ph25 ]
  %36 = add nuw i64 %.02124, 1
  %37 = add i64 %35, 1
  %38 = icmp ult i64 %36, %37
  br i1 %38, label %.lr.ph25, label %._crit_edge

._crit_edge:                                      ; preds = %.loopexit, %12
  call void @__kmpc_for_static_fini(ptr nonnull @2, i32 %14)
  br label %39

39:                                               ; preds = %._crit_edge, %6
  ret void
}